; Function Attrs: mustprogress uwtable
define hidden void @_ZN4lean6mk_maxERKNS_6bufferINS_5levelELm16EEE(ptr dead_on_unwind noalias writable sret(%"class.lean::level") align 8 %0, ptr noundef nonnull readonly align 8 captures(none) dereferenceable(152) %1) local_unnamed_addr #0 personality ptr @__gxx_personality_v0 {
  %3 = alloca %"class.lean::level", align 8
  %4 = getelementptr inbounds nuw i8, ptr %1, i64 8
  %5 = load i64, ptr %4, align 8, !tbaa !84
  %6 = trunc i64 %5 to i32
  %7 = icmp eq i32 %6, 1
  br i1 %7, label %8, label %19

8:                                                ; preds = %2
  %9 = load ptr, ptr %1, align 8, !tbaa !87
  %10 = load ptr, ptr %9, align 8, !tbaa !3
  store ptr %10, ptr %0, align 8, !tbaa !3
  %11 = ptrtoint ptr %10 to i64
  %12 = and i64 %11, 1
  %.not.i.i.i = icmp eq i64 %12, 0
  br i1 %.not.i.i.i, label %13, label %_ZN4lean5levelC2ERKS0_.exit

13:                                               ; preds = %8
  %.val.i.i.i.i = load i32, ptr %10, align 4, !tbaa !8
  %14 = icmp sgt i32 %.val.i.i.i.i, 0
  br i1 %14, label %15, label %17, !prof !11

15:                                               ; preds = %13
  %16 = add nuw nsw i32 %.val.i.i.i.i, 1
  store i32 %16, ptr %10, align 4, !tbaa !8
  br label %_ZN4lean5levelC2ERKS0_.exit

17:                                               ; preds = %13
  %.not.i.i.i.i = icmp eq i32 %.val.i.i.i.i, 0
  br i1 %.not.i.i.i.i, label %_ZN4lean5levelC2ERKS0_.exit, label %18

18:                                               ; preds = %17
  tail call void @lean_inc_ref_cold(ptr noundef nonnull %10)
  br label %_ZN4lean5levelC2ERKS0_.exit

19:                                               ; preds = %2
  %20 = add i32 %6, -2
  %21 = zext i32 %20 to i64
  %22 = load ptr, ptr %1, align 8, !tbaa !87
  %23 = getelementptr inbounds nuw %"class.lean::level", ptr %22, i64 %21
  %24 = add i64 %5, 4294967295
  %25 = and i64 %24, 4294967295
  %26 = getelementptr inbounds nuw %"class.lean::level", ptr %22, i64 %25
  tail call void @_ZN4lean6mk_maxERKNS_5levelES2_(ptr dead_on_unwind writable sret(%"class.lean::level") align 8 %0, ptr noundef nonnull align 8 dereferenceable(8) %23, ptr noundef nonnull align 8 dereferenceable(8) %26)
  %.not21 = icmp eq i32 %20, 0
  br i1 %.not21, label %_ZN4lean5levelC2ERKS0_.exit, label %.lr.ph

.lr.ph:                                           ; preds = %19, %_ZN4lean10object_refD2Ev.exit
  %indvars.iv = phi i64 [ %27, %_ZN4lean10object_refD2Ev.exit ], [ %21, %19 ]
  %27 = add nsw i64 %indvars.iv, -1
  call void @llvm.lifetime.start.p0(i64 8, ptr nonnull %3) #19
  %28 = load ptr, ptr %1, align 8, !tbaa !87
  %29 = getelementptr inbounds nuw %"class.lean::level", ptr %28, i64 %27
  invoke void @_ZN4lean6mk_maxERKNS_5levelES2_(ptr dead_on_unwind nonnull writable sret(%"class.lean::level") align 8 %3, ptr noundef nonnull align 8 dereferenceable(8) %29, ptr noundef nonnull align 8 dereferenceable(8) %0)
          to label %30 unwind label %42

30:                                               ; preds = %.lr.ph
  %31 = load ptr, ptr %0, align 8, !tbaa !3
  %32 = ptrtoint ptr %31 to i64
  %33 = and i64 %32, 1
  %.not.i.i.i18 = icmp eq i64 %33, 0
  br i1 %.not.i.i.i18, label %34, label %_ZN4lean10object_refD2Ev.exit

34:                                               ; preds = %30
  %35 = load i32, ptr %31, align 4, !tbaa !8
  %36 = icmp sgt i32 %35, 1
  br i1 %36, label %37, label %39, !prof !11

37:                                               ; preds = %34
  %38 = add nsw i32 %35, -1
  store i32 %38, ptr %31, align 4, !tbaa !8
  br label %_ZN4lean10object_refD2Ev.exit

39:                                               ; preds = %34
  %.not.i.i.i.i19 = icmp eq i32 %35, 0
  br i1 %.not.i.i.i.i19, label %_ZN4lean10object_refD2Ev.exit, label %40

40:                                               ; preds = %39
  invoke void @lean_dec_ref_cold(ptr noundef nonnull %31)
          to label %_ZN4lean10object_refD2Ev.exit unwind label %44

_ZN4lean10object_refD2Ev.exit:                    ; preds = %40, %30, %37, %39
  %41 = load ptr, ptr %3, align 8, !tbaa !3
  store ptr %41, ptr %0, align 8, !tbaa !3
  call void @llvm.lifetime.end.p0(i64 8, ptr nonnull %3) #19
  %.not.wide = icmp eq i64 %27, 0
  br i1 %.not.wide, label %_ZN4lean5levelC2ERKS0_.exit, label %.lr.ph, !llvm.loop !88

42:                                               ; preds = %.lr.ph
  %43 = landingpad { ptr, i32 }
          cleanup
  br label %46

44:                                               ; preds = %40
  %45 = landingpad { ptr, i32 }
          cleanup
  call void @_ZN4lean10object_refD2Ev(ptr noundef nonnull align 8 dereferenceable(8) %3) #19
  br label %46

46:                                               ; preds = %44, %42
  %.pn = phi { ptr, i32 } [ %45, %44 ], [ %43, %42 ]
  call void @llvm.lifetime.end.p0(i64 8, ptr nonnull %3) #19
  call void @_ZN4lean10object_refD2Ev(ptr noundef nonnull align 8 dereferenceable(8) %0) #19
  resume { ptr, i32 } %.pn

_ZN4lean5levelC2ERKS0_.exit:                      ; preds = %_ZN4lean10object_refD2Ev.exit, %19, %18, %17, %15, %8
  ret void
}